; Function Attrs: nofree norecurse nosync nounwind memory(readwrite, inaccessiblemem: none) uwtable
define internal void @ff_tx_fft1048576_ns_float_c(ptr readnone captures(none) %0, ptr noundef initializes((0, 128)) %1, ptr noundef readonly captures(none) %2, i64 %3) #10 {
  tail call void @ff_tx_fft524288_ns_float_c(ptr poison, ptr noundef %1, ptr noundef %2, i64 poison)
  %5 = getelementptr inbounds nuw i8, ptr %1, i64 4194304
  %6 = getelementptr inbounds nuw i8, ptr %2, i64 4194304
  tail call void @ff_tx_fft65536_ns_float_c(ptr readnone poison, ptr noundef nonnull %5, ptr noundef nonnull readonly %6, i64 poison)
  %7 = getelementptr inbounds nuw i8, ptr %1, i64 4718592
  %8 = getelementptr inbounds nuw i8, ptr %2, i64 4718592
  tail call void @ff_tx_fft32768_ns_float_c(ptr readnone poison, ptr noundef nonnull %7, ptr noundef nonnull readonly %8, i64 poison)
  %9 = getelementptr inbounds nuw i8, ptr %1, i64 4980736
  %10 = getelementptr inbounds nuw i8, ptr %2, i64 4980736
  tail call void @ff_tx_fft32768_ns_float_c(ptr readnone poison, ptr noundef nonnull %9, ptr noundef nonnull readonly %10, i64 poison)
  tail call fastcc void @ff_tx_fft_sr_combine_float_c(ptr noundef nonnull %5, ptr noundef nonnull @ff_tx_tab_131072_float, i32 noundef 16384)
  %11 = getelementptr inbounds nuw i8, ptr %1, i64 5242880
  %12 = getelementptr inbounds nuw i8, ptr %2, i64 5242880
  tail call void @ff_tx_fft65536_ns_float_c(ptr readnone poison, ptr noundef nonnull %11, ptr noundef nonnull readonly %12, i64 poison)
  %13 = getelementptr inbounds nuw i8, ptr %1, i64 5767168
  %14 = getelementptr inbounds nuw i8, ptr %2, i64 5767168
  tail call void @ff_tx_fft65536_ns_float_c(ptr readnone poison, ptr noundef nonnull %13, ptr noundef nonnull readonly %14, i64 poison)
  tail call fastcc void @ff_tx_fft_sr_combine_float_c(ptr noundef nonnull %5, ptr noundef nonnull @ff_tx_tab_262144_float, i32 noundef 32768)
  %15 = getelementptr inbounds nuw i8, ptr %1, i64 6291456
  %16 = getelementptr inbounds nuw i8, ptr %2, i64 6291456
  tail call void @ff_tx_fft65536_ns_float_c(ptr readnone poison, ptr noundef nonnull %15, ptr noundef nonnull readonly %16, i64 poison)
  %17 = getelementptr inbounds nuw i8, ptr %1, i64 6815744
  %18 = getelementptr inbounds nuw i8, ptr %2, i64 6815744
  tail call void @ff_tx_fft32768_ns_float_c(ptr readnone poison, ptr noundef nonnull %17, ptr noundef nonnull readonly %18, i64 poison)
  %19 = getelementptr inbounds nuw i8, ptr %1, i64 7077888
  %20 = getelementptr inbounds nuw i8, ptr %2, i64 7077888
  tail call void @ff_tx_fft32768_ns_float_c(ptr readnone poison, ptr noundef nonnull %19, ptr noundef nonnull readonly %20, i64 poison)
  tail call fastcc void @ff_tx_fft_sr_combine_float_c(ptr noundef nonnull %15, ptr noundef nonnull @ff_tx_tab_131072_float, i32 noundef 16384)
  %21 = getelementptr inbounds nuw i8, ptr %1, i64 7340032
  %22 = getelementptr inbounds nuw i8, ptr %2, i64 7340032
  tail call void @ff_tx_fft65536_ns_float_c(ptr readnone poison, ptr noundef nonnull %21, ptr noundef nonnull readonly %22, i64 poison)
  %23 = getelementptr inbounds nuw i8, ptr %1, i64 7864320
  %24 = getelementptr inbounds nuw i8, ptr %2, i64 7864320
  tail call void @ff_tx_fft65536_ns_float_c(ptr readnone poison, ptr noundef nonnull %23, ptr noundef nonnull readonly %24, i64 poison)
  tail call fastcc void @ff_tx_fft_sr_combine_float_c(ptr noundef nonnull %15, ptr noundef nonnull @ff_tx_tab_262144_float, i32 noundef 32768)
  tail call fastcc void @ff_tx_fft_sr_combine_float_c(ptr noundef %1, ptr noundef nonnull @ff_tx_tab_1048576_float, i32 noundef 131072)
  ret void
}